#include <math.h>
#include <stdio.h>
#include <stdlib.h>
#include <string.h>

int max(int a[],int n)
{
	int i,t,max=0;
	for(i=0;i<=n-1;i++)
		if(a[i]>max)
		{t=i;max=a[i];}
	return(t);
}
void main()
{
	int a[300],i,n,m,t,k;
	char c;
    scanf("%d",&a[0]);
	for(i=1;;i++)
	{
		if((c=getchar())!=',') break;
		else scanf("%d",&a[i]);
	}
	n=i;
	if(n==1) printf("No");
	else
	{
        t=max(a,n);
		m=a[t];a[t]=0;
		for(k=1;k<=n-1;k++)
		{
			if(a[max(a,n)]==m)
			{
				if(k==n-1) printf("No");
				a[max(a,n)]=0;
			}
			else 
			{printf("%d",a[max(a,n)]);break;}
		}
	}
}